target datalayout = "e-m:e-p270:32:32-p271:32:32-p272:64:64-i64:64-i128:128-f80:128-n8:16:32:64-S128"
target triple = "x86_64-unknown-linux-gnu"

%struct.QTailQLink = type { ptr, ptr }
%struct.BdrvCheckResult = type { i32, i32, i32, i32, i32, i64, %struct.BlockFragInfo }
%struct.BlockFragInfo = type { i64, i64, i64, i64 }
%struct.BlockDriverState = type { i32, i8, i8, i8, i8, i8, ptr, ptr, ptr, %struct.anon.0, i8, [4096 x i8], [4096 x i8], [4096 x i8], [16 x i8], ptr, [4096 x i8], %struct.BlockLimits, i32, i32, i32, i32, [32 x i8], %union.anon.1, %union.anon.2, %union.anon.3, i32, [16 x %struct.anon.4], ptr, %struct.anon.5, ptr, ptr, %struct.anon.6, ptr, ptr, i32, ptr, i64, i64, %struct.QemuMutex, %struct.anon.7, %struct.Stat64, i32, i32, i32, i32, i32, i32, %struct.QemuMutex, %struct.anon.8, %struct.CoQueue, i8, i32, i8, %struct.CoMutex, ptr, ptr }
%struct.anon.0 = type { ptr }
%struct.BlockLimits = type { i32, i64, i32, i64, i32, i32, i32, i64, i32, i64, i64, i32, i8, i32, i32, i32, i32, i32, i32, i32 }
%union.anon.1 = type { %struct.QTailQLink }
%union.anon.2 = type { %struct.QTailQLink }
%union.anon.3 = type { %struct.QTailQLink }
%struct.anon.4 = type { ptr }
%struct.anon.5 = type { ptr }
%struct.anon.6 = type { ptr }
%struct.anon.7 = type { ptr }
%struct.Stat64 = type { i64 }
%struct.QemuMutex = type { %union.pthread_mutex_t, i8 }
%union.pthread_mutex_t = type { %struct.__pthread_mutex_s }
%struct.__pthread_mutex_s = type { i32, i32, i32, i32, i32, i16, i16, %struct.__pthread_internal_list }
%struct.__pthread_internal_list = type { ptr, ptr }
%struct.anon.8 = type { ptr }
%struct.CoQueue = type { %struct.anon.9 }
%struct.anon.9 = type { ptr, ptr }
%struct.CoMutex = type { i32, ptr, %struct.anon.10, %struct.anon.10, i32, i32, ptr }
%struct.anon.10 = type { ptr }
%struct.BdrvChild = type { ptr, ptr, ptr, i32, ptr, i64, i64, i8, i8, %struct.anon.11, %struct.anon.12 }
%struct.anon.11 = type { ptr, ptr }
%struct.anon.12 = type { ptr, ptr }
%struct.BDRVParallelsState = type { %struct.CoMutex, ptr, i32, i8, ptr, i32, ptr, i64, ptr, i32, i64, i64, i64, i32, i32, i32, i32, ptr }

@stderr = external global ptr, align 8
@.str.40 = private unnamed_addr constant [10 x i8] c"Repairing\00", align 1
@.str.41 = private unnamed_addr constant [6 x i8] c"ERROR\00", align 1
@.str.44 = private unnamed_addr constant [45 x i8] c"%s space leaked at the end of the image %ld\0A\00", align 1

; Function Attrs: nounwind sspstrong uwtable
define internal i32 @parallels_check_leak(ptr noundef %bs, ptr noundef %res, i32 noundef %fix, i1 noundef zeroext %explicit) #0 {
entry:
  %retval = alloca i32, align 4
  %bs.addr = alloca ptr, align 8
  %res.addr = alloca ptr, align 8
  %fix.addr = alloca i32, align 4
  %explicit.addr = alloca i8, align 1
  %s = alloca ptr, align 8
  %size = alloca i64, align 8
  %ret = alloca i32, align 4
  %count = alloca i64, align 8
  %local_err = alloca ptr, align 8
  store ptr %bs, ptr %bs.addr, align 8
  store ptr %res, ptr %res.addr, align 8
  store i32 %fix, ptr %fix.addr, align 4
  %frombool = zext i1 %explicit to i8
  store i8 %frombool, ptr %explicit.addr, align 1
  %0 = load ptr, ptr %bs.addr, align 8
  %opaque = getelementptr inbounds %struct.BlockDriverState, ptr %0, i32 0, i32 7
  %1 = load ptr, ptr %opaque, align 8
  store ptr %1, ptr %s, align 8
  %2 = load ptr, ptr %bs.addr, align 8
  %file = getelementptr inbounds %struct.BlockDriverState, ptr %2, i32 0, i32 31
  %3 = load ptr, ptr %file, align 8
  %bs1 = getelementptr inbounds %struct.BdrvChild, ptr %3, i32 0, i32 0
  %4 = load ptr, ptr %bs1, align 8
  %call = call i64 @bdrv_co_getlength(ptr noundef %4)
  store i64 %call, ptr %size, align 8
  %5 = load i64, ptr %size, align 8
  %cmp = icmp slt i64 %5, 0
  br i1 %cmp, label %if.then, label %if.end

if.then:                                          ; preds = %entry
  %6 = load ptr, ptr %res.addr, align 8
  %check_errors = getelementptr inbounds %struct.BdrvCheckResult, ptr %6, i32 0, i32 2
  %7 = load i32, ptr %check_errors, align 8
  %inc = add i32 %7, 1
  store i32 %inc, ptr %check_errors, align 8
  %8 = load i64, ptr %size, align 8
  %conv = trunc i64 %8 to i32
  store i32 %conv, ptr %retval, align 4
  br label %return

if.end:                                           ; preds = %entry
  %9 = load i64, ptr %size, align 8
  %10 = load ptr, ptr %res.addr, align 8
  %image_end_offset = getelementptr inbounds %struct.BdrvCheckResult, ptr %10, i32 0, i32 5
  %11 = load i64, ptr %image_end_offset, align 8
  %cmp2 = icmp sgt i64 %9, %11
  br i1 %cmp2, label %if.then4, label %if.end38

if.then4:                                         ; preds = %if.end
  %12 = load i64, ptr %size, align 8
  %13 = load ptr, ptr %res.addr, align 8
  %image_end_offset5 = getelementptr inbounds %struct.BdrvCheckResult, ptr %13, i32 0, i32 5
  %14 = load i64, ptr %image_end_offset5, align 8
  %sub = sub i64 %12, %14
  %15 = load ptr, ptr %s, align 8
  %cluster_size = getelementptr inbounds %struct.BDRVParallelsState, ptr %15, i32 0, i32 15
  %16 = load i32, ptr %cluster_size, align 8
  %conv6 = zext i32 %16 to i64
  %add = add i64 %sub, %conv6
  %sub7 = sub i64 %add, 1
  %17 = load ptr, ptr %s, align 8
  %cluster_size8 = getelementptr inbounds %struct.BDRVParallelsState, ptr %17, i32 0, i32 15
  %18 = load i32, ptr %cluster_size8, align 8
  %conv9 = zext i32 %18 to i64
  %div = sdiv i64 %sub7, %conv9
  store i64 %div, ptr %count, align 8
  %19 = load i8, ptr %explicit.addr, align 1
  %tobool = trunc i8 %19 to i1
  br i1 %tobool, label %if.then10, label %if.end18

if.then10:                                        ; preds = %if.then4
  %20 = load ptr, ptr @stderr, align 8
  %21 = load i32, ptr %fix.addr, align 4
  %and = and i32 %21, 1
  %tobool11 = icmp ne i32 %and, 0
  %cond = select i1 %tobool11, ptr @.str.40, ptr @.str.41
  %22 = load i64, ptr %size, align 8
  %23 = load ptr, ptr %res.addr, align 8
  %image_end_offset12 = getelementptr inbounds %struct.BdrvCheckResult, ptr %23, i32 0, i32 5
  %24 = load i64, ptr %image_end_offset12, align 8
  %sub13 = sub i64 %22, %24
  %call14 = call i32 (ptr, ptr, ...) @fprintf(ptr noundef %20, ptr noundef @.str.44, ptr noundef %cond, i64 noundef %sub13)
  %25 = load i64, ptr %count, align 8
  %26 = load ptr, ptr %res.addr, align 8
  %leaks = getelementptr inbounds %struct.BdrvCheckResult, ptr %26, i32 0, i32 1
  %27 = load i32, ptr %leaks, align 4
  %conv15 = sext i32 %27 to i64
  %add16 = add i64 %conv15, %25
  %conv17 = trunc i64 %add16 to i32
  store i32 %conv17, ptr %leaks, align 4
  br label %if.end18

if.end18:                                         ; preds = %if.then10, %if.then4
  %28 = load i32, ptr %fix.addr, align 4
  %and19 = and i32 %28, 1
  %tobool20 = icmp ne i32 %and19, 0
  br i1 %tobool20, label %if.then21, label %if.end37

if.then21:                                        ; preds = %if.end18
  store ptr null, ptr %local_err, align 8
  %29 = load ptr, ptr %bs.addr, align 8
  %file22 = getelementptr inbounds %struct.BlockDriverState, ptr %29, i32 0, i32 31
  %30 = load ptr, ptr %file22, align 8
  %31 = load ptr, ptr %res.addr, align 8
  %image_end_offset23 = getelementptr inbounds %struct.BdrvCheckResult, ptr %31, i32 0, i32 5
  %32 = load i64, ptr %image_end_offset23, align 8
  %call24 = call i32 @bdrv_co_truncate(ptr noundef %30, i64 noundef %32, i1 noundef zeroext true, i32 noundef 0, i32 noundef 0, ptr noundef %local_err)
  store i32 %call24, ptr %ret, align 4
  %33 = load i32, ptr %ret, align 4
  %cmp25 = icmp slt i32 %33, 0
  br i1 %cmp25, label %if.then27, label %if.end30

if.then27:                                        ; preds = %if.then21
  %34 = load ptr, ptr %local_err, align 8
  call void @error_report_err(ptr noundef %34)
  %35 = load ptr, ptr %res.addr, align 8
  %check_errors28 = getelementptr inbounds %struct.BdrvCheckResult, ptr %35, i32 0, i32 2
  %36 = load i32, ptr %check_errors28, align 8
  %inc29 = add i32 %36, 1
  store i32 %inc29, ptr %check_errors28, align 8
  %37 = load i32, ptr %ret, align 4
  store i32 %37, ptr %retval, align 4
  br label %return

if.end30:                                         ; preds = %if.then21
  %38 = load i8, ptr %explicit.addr, align 1
  %tobool31 = trunc i8 %38 to i1
  br i1 %tobool31, label %if.then32, label %if.end36

if.then32:                                        ; preds = %if.end30
  %39 = load i64, ptr %count, align 8
  %40 = load ptr, ptr %res.addr, align 8
  %leaks_fixed = getelementptr inbounds %struct.BdrvCheckResult, ptr %40, i32 0, i32 4
  %41 = load i32, ptr %leaks_fixed, align 8
  %conv33 = sext i32 %41 to i64
  %add34 = add i64 %conv33, %39
  %conv35 = trunc i64 %add34 to i32
  store i32 %conv35, ptr %leaks_fixed, align 8
  br label %if.end36

if.end36:                                         ; preds = %if.then32, %if.end30
  br label %if.end37

if.end37:                                         ; preds = %if.end36, %if.end18
  br label %if.end38

if.end38:                                         ; preds = %if.end37, %if.end
  store i32 0, ptr %retval, align 4
  br label %return

return:                                           ; preds = %if.end38, %if.then27, %if.then
  %42 = load i32, ptr %retval, align 4
  ret i32 %42
}