; Function Attrs: nounwind sspstrong uwtable
define internal i32 @parallels_check_leak(ptr noundef readonly captures(none) %bs, ptr noundef captures(none) %res, i32 noundef %fix, i1 noundef zeroext %explicit) #0 {
entry:
  %local_err = alloca ptr, align 8
  %opaque = getelementptr inbounds nuw i8, ptr %bs, i64 24
  %0 = load ptr, ptr %opaque, align 8
  %file = getelementptr inbounds nuw i8, ptr %bs, i64 16840
  %1 = load ptr, ptr %file, align 8
  %2 = load ptr, ptr %1, align 8
  %call = tail call i64 @bdrv_co_getlength(ptr noundef %2) #16
  %cmp = icmp slt i64 %call, 0
  br i1 %cmp, label %if.then, label %if.end

if.then:                                          ; preds = %entry
  %check_errors = getelementptr inbounds nuw i8, ptr %res, i64 8
  %3 = load i32, ptr %check_errors, align 8
  %inc = add i32 %3, 1
  store i32 %inc, ptr %check_errors, align 8
  %conv = trunc i64 %call to i32
  br label %return

if.end:                                           ; preds = %entry
  %image_end_offset = getelementptr inbounds nuw i8, ptr %res, i64 24
  %4 = load i64, ptr %image_end_offset, align 8
  %cmp2 = icmp sgt i64 %call, %4
  br i1 %cmp2, label %if.then4, label %return

if.then4:                                         ; preds = %if.end
  %sub = sub i64 %call, %4
  %cluster_size = getelementptr inbounds nuw i8, ptr %0, i64 144
  %5 = load i32, ptr %cluster_size, align 8
  %conv6 = zext i32 %5 to i64
  %add = add i64 %sub, -1
  %sub7 = add i64 %add, %conv6
  %div = sdiv i64 %sub7, %conv6
  br i1 %explicit, label %if.then10, label %if.then4.if.end18_crit_edge

if.then4.if.end18_crit_edge:                      ; preds = %if.then4
  %.pre = and i32 %fix, 1
  br label %if.end18

if.then10:                                        ; preds = %if.then4
  %6 = load ptr, ptr @stderr, align 8
  %and = and i32 %fix, 1
  %tobool11.not = icmp eq i32 %and, 0
  %cond = select i1 %tobool11.not, ptr @.str.41, ptr @.str.40
  %call14 = tail call i32 (ptr, ptr, ...) @fprintf(ptr noundef %6, ptr noundef nonnull @.str.44, ptr noundef nonnull %cond, i64 noundef %sub) #19
  %leaks = getelementptr inbounds nuw i8, ptr %res, i64 4
  %7 = load i32, ptr %leaks, align 4
  %8 = trunc i64 %div to i32
  %conv17 = add i32 %7, %8
  store i32 %conv17, ptr %leaks, align 4
  br label %if.end18

if.end18:                                         ; preds = %if.then4.if.end18_crit_edge, %if.then10
  %and19.pre-phi = phi i32 [ %.pre, %if.then4.if.end18_crit_edge ], [ %and, %if.then10 ]
  %tobool20.not = icmp eq i32 %and19.pre-phi, 0
  br i1 %tobool20.not, label %return, label %if.then21

if.then21:                                        ; preds = %if.end18
  store ptr null, ptr %local_err, align 8
  %9 = load ptr, ptr %file, align 8
  %10 = load i64, ptr %image_end_offset, align 8
  %call24 = call i32 @bdrv_co_truncate(ptr noundef %9, i64 noundef %10, i1 noundef zeroext true, i32 noundef 0, i32 noundef 0, ptr noundef nonnull %local_err) #16
  %cmp25 = icmp slt i32 %call24, 0
  br i1 %cmp25, label %if.then27, label %if.end30

if.then27:                                        ; preds = %if.then21
  %11 = load ptr, ptr %local_err, align 8
  call void @error_report_err(ptr noundef %11) #16
  %check_errors28 = getelementptr inbounds nuw i8, ptr %res, i64 8
  %12 = load i32, ptr %check_errors28, align 8
  %inc29 = add i32 %12, 1
  store i32 %inc29, ptr %check_errors28, align 8
  br label %return

if.end30:                                         ; preds = %if.then21
  br i1 %explicit, label %if.then32, label %return

if.then32:                                        ; preds = %if.end30
  %leaks_fixed = getelementptr inbounds nuw i8, ptr %res, i64 16
  %13 = load i32, ptr %leaks_fixed, align 8
  %14 = trunc i64 %div to i32
  %conv35 = add i32 %13, %14
  store i32 %conv35, ptr %leaks_fixed, align 8
  br label %return

return:                                           ; preds = %if.end, %if.end30, %if.then32, %if.end18, %if.then27, %if.then
  %retval.0 = phi i32 [ %conv, %if.then ], [ %call24, %if.then27 ], [ 0, %if.end18 ], [ 0, %if.then32 ], [ 0, %if.end30 ], [ 0, %if.end ]
  ret i32 %retval.0
}